; Function Attrs: nounwind uwtable
define i32 @lv_obj_get_self_width(ptr noundef %0) local_unnamed_addr #0 {
  %2 = alloca %struct.lv_point_t, align 8
  call void @llvm.lifetime.start.p0(i64 8, ptr nonnull %2) #8
  store i64 -2305843004918726656, ptr %2, align 8
  %3 = call i32 @lv_obj_send_event(ptr noundef %0, i32 noundef 52, ptr noundef nonnull %2) #8
  %4 = load i32, ptr %2, align 8, !tbaa !18
  call void @llvm.lifetime.end.p0(i64 8, ptr nonnull %2) #8
  ret i32 %4
}